target datalayout = "e-m:e-p270:32:32-p271:32:32-p272:64:64-i64:64-i128:128-f80:128-n8:16:32:64-S128"
target triple = "x86_64-pc-linux-gnu"

%"class.std::__cxx11::basic_string" = type { %"struct.std::__cxx11::basic_string<char>::_Alloc_hider", i64, %union.anon }
%"struct.std::__cxx11::basic_string<char>::_Alloc_hider" = type { ptr }
%union.anon = type { i64, [8 x i8] }
%"class.std::shared_ptr" = type { %"class.std::__shared_ptr" }
%"class.std::__shared_ptr" = type { ptr, %"class.std::__shared_count" }
%"class.std::__shared_count" = type { ptr }
%"class.OpenColorIO_v2_5dev::XmlReaderContainerElt" = type { %"class.OpenColorIO_v2_5dev::XmlReaderElement" }
%"class.OpenColorIO_v2_5dev::XmlReaderElement" = type { ptr, %"class.std::__cxx11::basic_string", i32, %"class.std::__cxx11::basic_string" }
%"class.OpenColorIO_v2_5dev::FormatMetadataImpl" = type { %"class.OpenColorIO_v2_5dev::FormatMetadata", %"class.std::__cxx11::basic_string", %"class.std::__cxx11::basic_string", %"class.std::vector", %"class.std::vector.3" }
%"class.OpenColorIO_v2_5dev::FormatMetadata" = type { ptr }
%"class.std::vector" = type { %"struct.std::_Vector_base" }
%"struct.std::_Vector_base" = type { %"struct.std::_Vector_base<std::pair<std::__cxx11::basic_string<char>, std::__cxx11::basic_string<char>>, std::allocator<std::pair<std::__cxx11::basic_string<char>, std::__cxx11::basic_string<char>>>>::_Vector_impl" }
%"struct.std::_Vector_base<std::pair<std::__cxx11::basic_string<char>, std::__cxx11::basic_string<char>>, std::allocator<std::pair<std::__cxx11::basic_string<char>, std::__cxx11::basic_string<char>>>>::_Vector_impl" = type { %"struct.std::_Vector_base<std::pair<std::__cxx11::basic_string<char>, std::__cxx11::basic_string<char>>, std::allocator<std::pair<std::__cxx11::basic_string<char>, std::__cxx11::basic_string<char>>>>::_Vector_impl_data" }
%"struct.std::_Vector_base<std::pair<std::__cxx11::basic_string<char>, std::__cxx11::basic_string<char>>, std::allocator<std::pair<std::__cxx11::basic_string<char>, std::__cxx11::basic_string<char>>>>::_Vector_impl_data" = type { ptr, ptr, ptr }
%"class.std::vector.3" = type { %"struct.std::_Vector_base.4" }
%"struct.std::_Vector_base.4" = type { %"struct.std::_Vector_base<OpenColorIO_v2_5dev::FormatMetadataImpl, std::allocator<OpenColorIO_v2_5dev::FormatMetadataImpl>>::_Vector_impl" }
%"struct.std::_Vector_base<OpenColorIO_v2_5dev::FormatMetadataImpl, std::allocator<OpenColorIO_v2_5dev::FormatMetadataImpl>>::_Vector_impl" = type { %"struct.std::_Vector_base<OpenColorIO_v2_5dev::FormatMetadataImpl, std::allocator<OpenColorIO_v2_5dev::FormatMetadataImpl>>::_Vector_impl_data" }
%"struct.std::_Vector_base<OpenColorIO_v2_5dev::FormatMetadataImpl, std::allocator<OpenColorIO_v2_5dev::FormatMetadataImpl>>::_Vector_impl_data" = type { ptr, ptr, ptr }
%"struct.std::_Vector_base.23" = type { %"struct.std::_Vector_base<unsigned int, std::allocator<unsigned int>>::_Vector_impl" }
%"struct.std::_Vector_base<unsigned int, std::allocator<unsigned int>>::_Vector_impl" = type { %"struct.std::_Vector_base<unsigned int, std::allocator<unsigned int>>::_Vector_impl_data" }
%"struct.std::_Vector_base<unsigned int, std::allocator<unsigned int>>::_Vector_impl_data" = type { ptr, ptr, ptr }
%"class.__gnu_cxx::__normal_iterator.222" = type { ptr }
%"class.OpenColorIO_v2_5dev::CTFReaderOpElt" = type { %"class.OpenColorIO_v2_5dev::XmlReaderContainerElt", %"class.std::shared_ptr", i32, i32 }
%"class.OpenColorIO_v2_5dev::OpData" = type { ptr, %"class.std::mutex", %"class.OpenColorIO_v2_5dev::FormatMetadataImpl" }
%"class.std::mutex" = type { %"class.std::__mutex_base" }
%"class.std::__mutex_base" = type { %union.pthread_mutex_t }
%union.pthread_mutex_t = type { %struct.__pthread_mutex_s }
%struct.__pthread_mutex_s = type { i32, i32, i32, i32, i32, i16, i16, %struct.__pthread_internal_list }
%struct.__pthread_internal_list = type { ptr, ptr }
%"class.std::vector.159" = type { %"struct.std::_Vector_base.160" }
%"struct.std::_Vector_base.160" = type { %"struct.std::_Vector_base<float, std::allocator<float>>::_Vector_impl" }
%"struct.std::_Vector_base<float, std::allocator<float>>::_Vector_impl" = type { %"struct.std::_Vector_base<float, std::allocator<float>>::_Vector_impl_data" }
%"struct.std::_Vector_base<float, std::allocator<float>>::_Vector_impl_data" = type { ptr, ptr, ptr }
%"class.OpenColorIO_v2_5dev::CTFArrayMgt.base" = type <{ ptr, i8 }>
%"class.std::shared_ptr.183" = type { %"class.std::__shared_ptr.184" }
%"class.std::__shared_ptr.184" = type { ptr, %"class.std::__shared_count" }
%"class.OpenColorIO_v2_5dev::Lut1DOpData" = type <{ %"class.OpenColorIO_v2_5dev::OpData", i32, [4 x i8], %"class.OpenColorIO_v2_5dev::Lut1DOpData::Lut3by1DArray", i32, i32, i32, [4 x i8], [3 x %"struct.OpenColorIO_v2_5dev::Lut1DOpData::ComponentProperties"], i32, [4 x i8] }>
%"class.OpenColorIO_v2_5dev::Lut1DOpData::Lut3by1DArray" = type { %"class.OpenColorIO_v2_5dev::ArrayT" }
%"class.OpenColorIO_v2_5dev::ArrayT" = type { %"class.OpenColorIO_v2_5dev::ArrayBase", i64, i64, %"class.std::vector.159" }
%"class.OpenColorIO_v2_5dev::ArrayBase" = type { ptr }
%"struct.OpenColorIO_v2_5dev::Lut1DOpData::ComponentProperties" = type { i8, i64, i64, i64, i64 }
%"class.OpenColorIO_v2_5dev::CTFReaderLut1DElt" = type { %"class.OpenColorIO_v2_5dev::CTFReaderOpElt", %"class.OpenColorIO_v2_5dev::CTFArrayMgt.base", [7 x i8], %"class.OpenColorIO_v2_5dev::CTFIndexMapMgt.base", %"class.std::shared_ptr.183", %"class.OpenColorIO_v2_5dev::IndexMapping" }
%"class.OpenColorIO_v2_5dev::CTFIndexMapMgt.base" = type <{ ptr, i8 }>
%"class.OpenColorIO_v2_5dev::IndexMapping" = type { ptr, i64, [3 x %"class.std::vector.30"] }
%"class.std::vector.30" = type { %"struct.std::_Vector_base.31" }
%"struct.std::_Vector_base.31" = type { %"struct.std::_Vector_base<std::pair<float, float>, std::allocator<std::pair<float, float>>>::_Vector_impl" }
%"struct.std::_Vector_base<std::pair<float, float>, std::allocator<std::pair<float, float>>>::_Vector_impl" = type { %"struct.std::_Vector_base<std::pair<float, float>, std::allocator<std::pair<float, float>>>::_Vector_impl_data" }
%"struct.std::_Vector_base<std::pair<float, float>, std::allocator<std::pair<float, float>>>::_Vector_impl_data" = type { ptr, ptr, ptr }

; Function Attrs: mustprogress nounwind uwtable
define linkonce_odr hidden noundef ptr @_ZNKSt12__shared_ptrIN19OpenColorIO_v2_5dev11Lut1DOpDataELN9__gnu_cxx12_Lock_policyE2EE3getEv(ptr noundef nonnull align 8 dereferenceable(16) %0) #4 comdat align 2 {
  %2 = alloca ptr, align 8
  store ptr %0, ptr %2, align 8, !tbaa !562
  %3 = load ptr, ptr %2, align 8
  %4 = getelementptr inbounds nuw %"class.std::__shared_ptr.184", ptr %3, i32 0, i32 0
  %5 = load ptr, ptr %4, align 8, !tbaa !1671
  ret ptr %5
}

; Function Attrs: mustprogress nounwind uwtable
define linkonce_odr hidden noundef nonnull align 8 dereferenceable(8) ptr @_ZNK9__gnu_cxx17__normal_iteratorIPKjSt6vectorIjSaIjEEE4baseEv(ptr noundef nonnull align 8 dereferenceable(8) %0) #4 comdat align 2 {
  %2 = alloca ptr, align 8
  store ptr %0, ptr %2, align 8, !tbaa !986
  %3 = load ptr, ptr %2, align 8
  %4 = getelementptr inbounds nuw %"class.__gnu_cxx::__normal_iterator.222", ptr %3, i32 0, i32 0
  ret ptr %4
}

; Function Attrs: mustprogress nounwind uwtable
define linkonce_odr hidden void @_ZN9__gnu_cxx17__normal_iteratorIPKjSt6vectorIjSaIjEEEC2ERKS2_(ptr noundef nonnull align 8 dereferenceable(8) %0, ptr noundef nonnull align 8 dereferenceable(8) %1) unnamed_addr #4 comdat align 2 {
  %3 = alloca ptr, align 8
  %4 = alloca ptr, align 8
  store ptr %0, ptr %3, align 8, !tbaa !986
  store ptr %1, ptr %4, align 8, !tbaa !980
  %5 = load ptr, ptr %3, align 8
  %6 = getelementptr inbounds nuw %"class.__gnu_cxx::__normal_iterator.222", ptr %5, i32 0, i32 0
  %7 = load ptr, ptr %4, align 8, !tbaa !980
  %8 = load ptr, ptr %7, align 8, !tbaa !447
  store ptr %8, ptr %6, align 8, !tbaa !988
  ret void
}

; Function Attrs: mustprogress nounwind uwtable
define linkonce_odr hidden noundef ptr @_ZNKSt19__shared_ptr_accessIN19OpenColorIO_v2_5dev11Lut1DOpDataELN9__gnu_cxx12_Lock_policyE2ELb0ELb0EE6_M_getEv(ptr noundef nonnull align 1 dereferenceable(1) %0) #4 comdat align 2 {
  %2 = alloca ptr, align 8
  store ptr %0, ptr %2, align 8, !tbaa !569
  %3 = load ptr, ptr %2, align 8
  %4 = call noundef ptr @_ZNKSt12__shared_ptrIN19OpenColorIO_v2_5dev11Lut1DOpDataELN9__gnu_cxx12_Lock_policyE2EE3getEv(ptr noundef nonnull align 8 dereferenceable(16) %3) #3
  ret ptr %4
}

; Function Attrs: inlinehint mustprogress nounwind uwtable
define linkonce_odr noundef zeroext i1 @_ZN9__gnu_cxxeqIPKjSt6vectorIjSaIjEEEEbRKNS_17__normal_iteratorIT_T0_EESB_(ptr noundef nonnull align 8 dereferenceable(8) %0, ptr noundef nonnull align 8 dereferenceable(8) %1) #14 comdat {
  %3 = alloca ptr, align 8
  %4 = alloca ptr, align 8
  store ptr %0, ptr %3, align 8, !tbaa !986
  store ptr %1, ptr %4, align 8, !tbaa !986
  %5 = load ptr, ptr %3, align 8, !tbaa !986
  %6 = call noundef nonnull align 8 dereferenceable(8) ptr @_ZNK9__gnu_cxx17__normal_iteratorIPKjSt6vectorIjSaIjEEE4baseEv(ptr noundef nonnull align 8 dereferenceable(8) %5) #3
  %7 = load ptr, ptr %6, align 8, !tbaa !447
  %8 = load ptr, ptr %4, align 8, !tbaa !986
  %9 = call noundef nonnull align 8 dereferenceable(8) ptr @_ZNK9__gnu_cxx17__normal_iteratorIPKjSt6vectorIjSaIjEEE4baseEv(ptr noundef nonnull align 8 dereferenceable(8) %8) #3
  %10 = load ptr, ptr %9, align 8, !tbaa !447
  %11 = icmp eq ptr %7, %10
  ret i1 %11
}

; Function Attrs: mustprogress nounwind uwtable
define linkonce_odr hidden ptr @_ZNKSt6vectorIjSaIjEE3endEv(ptr noundef nonnull align 8 dereferenceable(24) %0) #4 comdat align 2 {
  %2 = alloca %"class.__gnu_cxx::__normal_iterator.222", align 8
  %3 = alloca ptr, align 8
  store ptr %0, ptr %3, align 8, !tbaa !89
  %4 = load ptr, ptr %3, align 8
  %5 = getelementptr inbounds nuw %"struct.std::_Vector_base.23", ptr %4, i32 0, i32 0
  %6 = getelementptr inbounds nuw %"struct.std::_Vector_base<unsigned int, std::allocator<unsigned int>>::_Vector_impl_data", ptr %5, i32 0, i32 1
  call void @_ZN9__gnu_cxx17__normal_iteratorIPKjSt6vectorIjSaIjEEEC2ERKS2_(ptr noundef nonnull align 8 dereferenceable(8) %2, ptr noundef nonnull align 8 dereferenceable(8) %6) #3
  %7 = getelementptr inbounds nuw %"class.__gnu_cxx::__normal_iterator.222", ptr %2, i32 0, i32 0
  %8 = load ptr, ptr %7, align 8
  ret ptr %8
}

; Function Attrs: mustprogress nounwind uwtable
define linkonce_odr hidden ptr @_ZNKSt6vectorIjSaIjEE5beginEv(ptr noundef nonnull align 8 dereferenceable(24) %0) #4 comdat align 2 {
  %2 = alloca %"class.__gnu_cxx::__normal_iterator.222", align 8
  %3 = alloca ptr, align 8
  store ptr %0, ptr %3, align 8, !tbaa !89
  %4 = load ptr, ptr %3, align 8
  %5 = getelementptr inbounds nuw %"struct.std::_Vector_base.23", ptr %4, i32 0, i32 0
  %6 = getelementptr inbounds nuw %"struct.std::_Vector_base<unsigned int, std::allocator<unsigned int>>::_Vector_impl_data", ptr %5, i32 0, i32 0
  call void @_ZN9__gnu_cxx17__normal_iteratorIPKjSt6vectorIjSaIjEEEC2ERKS2_(ptr noundef nonnull align 8 dereferenceable(8) %2, ptr noundef nonnull align 8 dereferenceable(8) %6) #3
  %7 = getelementptr inbounds nuw %"class.__gnu_cxx::__normal_iterator.222", ptr %2, i32 0, i32 0
  %8 = load ptr, ptr %7, align 8
  ret ptr %8
}

; Function Attrs: inlinehint mustprogress nounwind uwtable
define linkonce_odr hidden noundef nonnull align 8 dereferenceable(48) ptr @_ZN19OpenColorIO_v2_5dev11Lut1DOpData8getArrayEv(ptr noundef nonnull align 8 dereferenceable(364) %0) #14 comdat align 2 {
  %2 = alloca ptr, align 8
  store ptr %0, ptr %2, align 8, !tbaa !571
  %3 = load ptr, ptr %2, align 8
  %4 = getelementptr inbounds nuw %"class.OpenColorIO_v2_5dev::Lut1DOpData", ptr %3, i32 0, i32 3
  ret ptr %4
}

; Function Attrs: mustprogress nounwind uwtable
define linkonce_odr hidden noundef ptr @_ZNKSt19__shared_ptr_accessIN19OpenColorIO_v2_5dev11Lut1DOpDataELN9__gnu_cxx12_Lock_policyE2ELb0ELb0EEptEv(ptr noundef nonnull align 1 dereferenceable(1) %0) #4 comdat align 2 {
  %2 = alloca ptr, align 8
  store ptr %0, ptr %2, align 8, !tbaa !569
  %3 = load ptr, ptr %2, align 8
  %4 = call noundef ptr @_ZNKSt19__shared_ptr_accessIN19OpenColorIO_v2_5dev11Lut1DOpDataELN9__gnu_cxx12_Lock_policyE2ELb0ELb0EE6_M_getEv(ptr noundef nonnull align 1 dereferenceable(1) %3) #3
  ret ptr %4
}

; Function Attrs: mustprogress nounwind uwtable
define linkonce_odr hidden noundef nonnull align 4 dereferenceable(4) ptr @_ZNKSt6vectorIjSaIjEEixEm(ptr noundef nonnull align 8 dereferenceable(24) %0, i64 noundef %1) #4 comdat align 2 {
  %3 = alloca ptr, align 8
  %4 = alloca i64, align 8
  store ptr %0, ptr %3, align 8, !tbaa !89
  store i64 %1, ptr %4, align 8, !tbaa !85
  %5 = load ptr, ptr %3, align 8
  %6 = getelementptr inbounds nuw %"struct.std::_Vector_base.23", ptr %5, i32 0, i32 0
  %7 = getelementptr inbounds nuw %"struct.std::_Vector_base<unsigned int, std::allocator<unsigned int>>::_Vector_impl_data", ptr %6, i32 0, i32 0
  %8 = load ptr, ptr %7, align 8, !tbaa !92
  %9 = load i64, ptr %4, align 8, !tbaa !85
  %10 = getelementptr inbounds nuw i32, ptr %8, i64 %9
  ret ptr %10
}

; Function Attrs: mustprogress nounwind uwtable
define linkonce_odr hidden noundef zeroext i1 @_ZNKSt6vectorIjSaIjEE5emptyEv(ptr noundef nonnull align 8 dereferenceable(24) %0) #4 comdat align 2 {
  %2 = alloca ptr, align 8
  %3 = alloca %"class.__gnu_cxx::__normal_iterator.222", align 8
  %4 = alloca %"class.__gnu_cxx::__normal_iterator.222", align 8
  store ptr %0, ptr %2, align 8, !tbaa !89
  %5 = load ptr, ptr %2, align 8
  call void @llvm.lifetime.start.p0(i64 8, ptr %3) #3
  %6 = call ptr @_ZNKSt6vectorIjSaIjEE5beginEv(ptr noundef nonnull align 8 dereferenceable(24) %5) #3
  %7 = getelementptr inbounds nuw %"class.__gnu_cxx::__normal_iterator.222", ptr %3, i32 0, i32 0
  store ptr %6, ptr %7, align 8
  call void @llvm.lifetime.start.p0(i64 8, ptr %4) #3
  %8 = call ptr @_ZNKSt6vectorIjSaIjEE3endEv(ptr noundef nonnull align 8 dereferenceable(24) %5) #3
  %9 = getelementptr inbounds nuw %"class.__gnu_cxx::__normal_iterator.222", ptr %4, i32 0, i32 0
  store ptr %8, ptr %9, align 8
  %10 = call noundef zeroext i1 @_ZN9__gnu_cxxeqIPKjSt6vectorIjSaIjEEEEbRKNS_17__normal_iteratorIT_T0_EESB_(ptr noundef nonnull align 8 dereferenceable(8) %3, ptr noundef nonnull align 8 dereferenceable(8) %4) #3
  call void @llvm.lifetime.end.p0(i64 8, ptr %4) #3
  call void @llvm.lifetime.end.p0(i64 8, ptr %3) #3
  ret i1 %10
}

; Function Attrs: mustprogress nounwind uwtable
define linkonce_odr hidden noundef i64 @_ZNKSt6vectorIjSaIjEE4sizeEv(ptr noundef nonnull align 8 dereferenceable(24) %0) #4 comdat align 2 {
  %2 = alloca ptr, align 8
  store ptr %0, ptr %2, align 8, !tbaa !89
  %3 = load ptr, ptr %2, align 8
  %4 = getelementptr inbounds nuw %"struct.std::_Vector_base.23", ptr %3, i32 0, i32 0
  %5 = getelementptr inbounds nuw %"struct.std::_Vector_base<unsigned int, std::allocator<unsigned int>>::_Vector_impl_data", ptr %4, i32 0, i32 1
  %6 = load ptr, ptr %5, align 8, !tbaa !95
  %7 = getelementptr inbounds nuw %"struct.std::_Vector_base.23", ptr %3, i32 0, i32 0
  %8 = getelementptr inbounds nuw %"struct.std::_Vector_base<unsigned int, std::allocator<unsigned int>>::_Vector_impl_data", ptr %7, i32 0, i32 0
  %9 = load ptr, ptr %8, align 8, !tbaa !92
  %10 = ptrtoint ptr %6 to i64
  %11 = ptrtoint ptr %9 to i64
  %12 = sub i64 %10, %11
  %13 = sdiv exact i64 %12, 4
  ret i64 %13
}

; Function Attrs: mustprogress uwtable
define hidden noundef ptr @_ZN19OpenColorIO_v2_5dev17CTFReaderLut1DElt15updateDimensionERKSt6vectorIjSaIjEE(ptr noundef nonnull align 8 dereferenceable(240) %0, ptr noundef nonnull align 8 dereferenceable(24) %1) unnamed_addr #5 align 2 {
  %3 = alloca ptr, align 8
  %4 = alloca ptr, align 8
  %5 = alloca ptr, align 8
  %6 = alloca i64, align 8
  %7 = alloca i32, align 4
  %8 = alloca i32, align 4
  %9 = alloca ptr, align 8
  store ptr %0, ptr %4, align 8, !tbaa !654
  store ptr %1, ptr %5, align 8, !tbaa !89
  %10 = load ptr, ptr %4, align 8
  %11 = load ptr, ptr %5, align 8, !tbaa !89
  %12 = call noundef i64 @_ZNKSt6vectorIjSaIjEE4sizeEv(ptr noundef nonnull align 8 dereferenceable(24) %11) #3
  %13 = icmp ne i64 %12, 2
  br i1 %13, label %14, label %15

14:                                               ; preds = %2
  store ptr null, ptr %3, align 8
  br label %55

15:                                               ; preds = %2
  call void @llvm.lifetime.start.p0(i64 8, ptr %6) #3
  %16 = load ptr, ptr %5, align 8, !tbaa !89
  %17 = call noundef zeroext i1 @_ZNKSt6vectorIjSaIjEE5emptyEv(ptr noundef nonnull align 8 dereferenceable(24) %16) #3
  br i1 %17, label %18, label %19

18:                                               ; preds = %15
  br label %23

19:                                               ; preds = %15
  %20 = load ptr, ptr %5, align 8, !tbaa !89
  %21 = call noundef i64 @_ZNKSt6vectorIjSaIjEE4sizeEv(ptr noundef nonnull align 8 dereferenceable(24) %20) #3
  %22 = sub i64 %21, 1
  br label %23

23:                                               ; preds = %19, %18
  %24 = phi i64 [ 0, %18 ], [ %22, %19 ]
  store i64 %24, ptr %6, align 8, !tbaa !85
  call void @llvm.lifetime.start.p0(i64 4, ptr %7) #3
  %25 = load ptr, ptr %5, align 8, !tbaa !89
  %26 = load i64, ptr %6, align 8, !tbaa !85
  %27 = call noundef nonnull align 4 dereferenceable(4) ptr @_ZNKSt6vectorIjSaIjEEixEm(ptr noundef nonnull align 8 dereferenceable(24) %25, i64 noundef %26) #3
  %28 = load i32, ptr %27, align 4, !tbaa !13
  store i32 %28, ptr %7, align 4, !tbaa !13
  %29 = load ptr, ptr %5, align 8, !tbaa !89
  %30 = call noundef nonnull align 4 dereferenceable(4) ptr @_ZNKSt6vectorIjSaIjEEixEm(ptr noundef nonnull align 8 dereferenceable(24) %29, i64 noundef 1) #3
  %31 = load i32, ptr %30, align 4, !tbaa !13
  %32 = icmp ne i32 %31, 3
  br i1 %32, label %33, label %39

33:                                               ; preds = %23
  %34 = load ptr, ptr %5, align 8, !tbaa !89
  %35 = call noundef nonnull align 4 dereferenceable(4) ptr @_ZNKSt6vectorIjSaIjEEixEm(ptr noundef nonnull align 8 dereferenceable(24) %34, i64 noundef 1) #3
  %36 = load i32, ptr %35, align 4, !tbaa !13
  %37 = icmp ne i32 %36, 1
  br i1 %37, label %38, label %39

38:                                               ; preds = %33
  store ptr null, ptr %3, align 8
  store i32 1, ptr %8, align 4
  br label %54

39:                                               ; preds = %33, %23
  call void @llvm.lifetime.start.p0(i64 8, ptr %9) #3
  %40 = getelementptr inbounds nuw %"class.OpenColorIO_v2_5dev::CTFReaderLut1DElt", ptr %10, i32 0, i32 4
  %41 = call noundef ptr @_ZNKSt19__shared_ptr_accessIN19OpenColorIO_v2_5dev11Lut1DOpDataELN9__gnu_cxx12_Lock_policyE2ELb0ELb0EEptEv(ptr noundef nonnull align 1 dereferenceable(1) %40) #3
  %42 = call noundef nonnull align 8 dereferenceable(48) ptr @_ZN19OpenColorIO_v2_5dev11Lut1DOpData8getArrayEv(ptr noundef nonnull align 8 dereferenceable(364) %41) #3
  store ptr %42, ptr %9, align 8, !tbaa !585
  %43 = load ptr, ptr %9, align 8, !tbaa !585
  %44 = load ptr, ptr %5, align 8, !tbaa !89
  %45 = call noundef nonnull align 4 dereferenceable(4) ptr @_ZNKSt6vectorIjSaIjEEixEm(ptr noundef nonnull align 8 dereferenceable(24) %44, i64 noundef 0) #3
  %46 = load i32, ptr %45, align 4, !tbaa !13
  %47 = zext i32 %46 to i64
  %48 = load i32, ptr %7, align 4, !tbaa !13
  %49 = zext i32 %48 to i64
  %50 = load ptr, ptr %43, align 8, !tbaa !25
  %51 = getelementptr inbounds ptr, ptr %50, i64 7
  %52 = load ptr, ptr %51, align 8
  call void %52(ptr noundef nonnull align 8 dereferenceable(48) %43, i64 noundef %47, i64 noundef %49)
  %53 = load ptr, ptr %9, align 8, !tbaa !585
  store ptr %53, ptr %3, align 8
  store i32 1, ptr %8, align 4
  call void @llvm.lifetime.end.p0(i64 8, ptr %9) #3
  br label %54

54:                                               ; preds = %39, %38
  call void @llvm.lifetime.end.p0(i64 4, ptr %7) #3
  call void @llvm.lifetime.end.p0(i64 8, ptr %6) #3
  br label %55

55:                                               ; preds = %54, %14
  %56 = load ptr, ptr %3, align 8
  ret ptr %56
}